target datalayout = "e-m:e-p270:32:32-p271:32:32-p272:64:64-i64:64-i128:128-f80:128-n8:16:32:64-S128"
target triple = "x86_64-pc-linux-gnu"

@PyExc_ValueError = external global ptr, align 8
@validate_name.forbidden = internal constant [4 x ptr] [ptr @.str.38, ptr @.str.39, ptr @.str.40, ptr null], align 16
@.str.41 = private unnamed_addr constant [47 x i8] c"identifier field can't represent '%s' constant\00", align 1
@.str.58 = private unnamed_addr constant [2 x i8] c"_\00", align 1
@.str.59 = private unnamed_addr constant [35 x i8] c"can't capture name '_' in patterns\00", align 1

; Function Attrs: nounwind uwtable
define internal i32 @validate_name(ptr noundef %0) #0 {
  %2 = alloca i32, align 4
  %3 = alloca ptr, align 8
  %4 = alloca i32, align 4
  %5 = alloca i32, align 4
  store ptr %0, ptr %3, align 8, !tbaa !30
  call void @llvm.lifetime.start.p0(i64 4, ptr %4) #6
  store i32 0, ptr %4, align 4, !tbaa !9
  br label %6

6:                                                ; preds = %29, %1
  %7 = load i32, ptr %4, align 4, !tbaa !9
  %8 = sext i32 %7 to i64
  %9 = getelementptr [4 x ptr], ptr @validate_name.forbidden, i64 0, i64 %8
  %10 = load ptr, ptr %9, align 8, !tbaa !82
  %11 = icmp ne ptr %10, null
  br i1 %11, label %13, label %12

12:                                               ; preds = %6
  store i32 2, ptr %5, align 4
  br label %32

13:                                               ; preds = %6
  %14 = load ptr, ptr %3, align 8, !tbaa !30
  %15 = load i32, ptr %4, align 4, !tbaa !9
  %16 = sext i32 %15 to i64
  %17 = getelementptr [4 x ptr], ptr @validate_name.forbidden, i64 0, i64 %16
  %18 = load ptr, ptr %17, align 8, !tbaa !82
  %19 = call i32 @_PyUnicode_EqualToASCIIString(ptr noundef %14, ptr noundef %18)
  %20 = icmp ne i32 %19, 0
  br i1 %20, label %21, label %28

21:                                               ; preds = %13
  %22 = load ptr, ptr @PyExc_ValueError, align 8, !tbaa !30
  %23 = load i32, ptr %4, align 4, !tbaa !9
  %24 = sext i32 %23 to i64
  %25 = getelementptr [4 x ptr], ptr @validate_name.forbidden, i64 0, i64 %24
  %26 = load ptr, ptr %25, align 8, !tbaa !82
  %27 = call ptr (ptr, ptr, ...) @PyErr_Format(ptr noundef %22, ptr noundef @.str.41, ptr noundef %26)
  store i32 0, ptr %2, align 4
  store i32 1, ptr %5, align 4
  br label %32

28:                                               ; preds = %13
  br label %29

29:                                               ; preds = %28
  %30 = load i32, ptr %4, align 4, !tbaa !9
  %31 = add i32 %30, 1
  store i32 %31, ptr %4, align 4, !tbaa !9
  br label %6, !llvm.loop !122

32:                                               ; preds = %21, %12
  call void @llvm.lifetime.end.p0(i64 4, ptr %4) #6
  %33 = load i32, ptr %5, align 4
  switch i32 %33, label %37 [
    i32 2, label %34
    i32 1, label %35
  ]

34:                                               ; preds = %32
  store i32 1, ptr %2, align 4
  br label %35

35:                                               ; preds = %34, %32
  %36 = load i32, ptr %2, align 4
  ret i32 %36

37:                                               ; preds = %32
  unreachable
}

; Function Attrs: nounwind uwtable
define internal i32 @validate_capture(ptr noundef %0) #0 {
  %2 = alloca i32, align 4
  %3 = alloca ptr, align 8
  store ptr %0, ptr %3, align 8, !tbaa !30
  %4 = load ptr, ptr %3, align 8, !tbaa !30
  %5 = call i32 @_PyUnicode_EqualToASCIIString(ptr noundef %4, ptr noundef @.str.58)
  %6 = icmp ne i32 %5, 0
  br i1 %6, label %7, label %10

7:                                                ; preds = %1
  %8 = load ptr, ptr @PyExc_ValueError, align 8, !tbaa !30
  %9 = call ptr (ptr, ptr, ...) @PyErr_Format(ptr noundef %8, ptr noundef @.str.59)
  store i32 0, ptr %2, align 4
  br label %13

10:                                               ; preds = %1
  %11 = load ptr, ptr %3, align 8, !tbaa !30
  %12 = call i32 @validate_name(ptr noundef %11)
  store i32 %12, ptr %2, align 4
  br label %13

13:                                               ; preds = %10, %7
  %14 = load i32, ptr %2, align 4
  ret i32 %14
}