; Function Attrs: nounwind uwtable
define internal fastcc range(i32 0, 2) i32 @validate_capture(ptr noundef nonnull %0) unnamed_addr #0 {
  %2 = tail call i32 @_PyUnicode_EqualToASCIIString(ptr noundef nonnull %0, ptr noundef nonnull @.str.58) #5
  %.not = icmp eq i32 %2, 0
  br i1 %.not, label %.preheader, label %3

3:                                                ; preds = %1
  %4 = load ptr, ptr @PyExc_ValueError, align 8, !tbaa !33
  %5 = tail call ptr (ptr, ptr, ...) @PyErr_Format(ptr noundef %4, ptr noundef nonnull @.str.59) #5
  br label %13

6:                                                ; preds = %.preheader
  %indvars.iv.next.i = add nuw nsw i64 %indvars.iv.i, 1
  %.not.i = icmp eq i64 %indvars.iv.next.i, 3
  br i1 %.not.i, label %validate_name.exit, label %.preheader, !llvm.loop !91

.preheader:                                       ; preds = %1, %6
  %indvars.iv.i = phi i64 [ %indvars.iv.next.i, %6 ], [ 0, %1 ]
  %7 = getelementptr [4 x ptr], ptr @validate_name.forbidden, i64 0, i64 %indvars.iv.i
  %8 = load ptr, ptr %7, align 8, !tbaa !92
  %9 = tail call i32 @_PyUnicode_EqualToASCIIString(ptr noundef nonnull %0, ptr noundef %8) #5
  %.not9.i = icmp eq i32 %9, 0
  br i1 %.not9.i, label %6, label %10

10:                                               ; preds = %.preheader
  %11 = load ptr, ptr @PyExc_ValueError, align 8, !tbaa !33
  %12 = tail call ptr (ptr, ptr, ...) @PyErr_Format(ptr noundef %11, ptr noundef nonnull @.str.41, ptr noundef %8) #5
  br label %validate_name.exit

validate_name.exit:                               ; preds = %6, %10
  %spec.select.i = zext i1 %.not9.i to i32
  br label %13

13:                                               ; preds = %validate_name.exit, %3
  %.0 = phi i32 [ 0, %3 ], [ %spec.select.i, %validate_name.exit ]
  ret i32 %.0
}